target datalayout = "e-m:e-p270:32:32-p271:32:32-p272:64:64-i64:64-i128:128-f80:128-n8:16:32:64-S128"
target triple = "x86_64-pc-linux-gnu"

@PyExc_AssertionError = external global ptr, align 8
@.str.351 = private unnamed_addr constant [27 x i8] c"SystemError not raised: %s\00", align 1
@PyExc_SystemError = external global ptr, align 8

; Function Attrs: nounwind uwtable
define internal i32 @check_raised_systemerror(ptr noundef %0, ptr noundef %1) #0 {
  %3 = alloca i32, align 4
  %4 = alloca ptr, align 8
  %5 = alloca ptr, align 8
  store ptr %0, ptr %4, align 8, !tbaa !3
  store ptr %1, ptr %5, align 8, !tbaa !8
  %6 = load ptr, ptr %4, align 8, !tbaa !3
  %7 = icmp ne ptr %6, null
  br i1 %7, label %8, label %12

8:                                                ; preds = %2
  %9 = load ptr, ptr @PyExc_AssertionError, align 8, !tbaa !3
  %10 = load ptr, ptr %5, align 8, !tbaa !8
  %11 = call ptr (ptr, ptr, ...) @PyErr_Format(ptr noundef %9, ptr noundef @.str.351, ptr noundef %10)
  store i32 0, ptr %3, align 4
  br label %18

12:                                               ; preds = %2
  %13 = load ptr, ptr @PyExc_SystemError, align 8, !tbaa !3
  %14 = call i32 @PyErr_ExceptionMatches(ptr noundef %13)
  %15 = icmp ne i32 %14, 0
  br i1 %15, label %16, label %17

16:                                               ; preds = %12
  call void @PyErr_Clear()
  store i32 1, ptr %3, align 4
  br label %18

17:                                               ; preds = %12
  store i32 0, ptr %3, align 4
  br label %18

18:                                               ; preds = %17, %16, %8
  %19 = load i32, ptr %3, align 4
  ret i32 %19
}