; Function Attrs: nounwind uwtable
define internal fastcc range(i32 0, 2) i32 @check_raised_systemerror(ptr noundef readnone %0, ptr noundef %1) unnamed_addr #0 {
  %.not = icmp eq ptr %0, null
  br i1 %.not, label %6, label %3

3:                                                ; preds = %2
  %4 = load ptr, ptr @PyExc_AssertionError, align 8, !tbaa !8
  %5 = tail call ptr (ptr, ptr, ...) @PyErr_Format(ptr noundef %4, ptr noundef nonnull @.str.351, ptr noundef %1) #4
  br label %10

6:                                                ; preds = %2
  %7 = load ptr, ptr @PyExc_SystemError, align 8, !tbaa !8
  %8 = tail call i32 @PyErr_ExceptionMatches(ptr noundef %7) #4
  %.not2 = icmp eq i32 %8, 0
  br i1 %.not2, label %10, label %9

9:                                                ; preds = %6
  tail call void @PyErr_Clear() #4
  br label %10

10:                                               ; preds = %6, %9, %3
  %.0 = phi i32 [ 0, %3 ], [ 1, %9 ], [ 0, %6 ]
  ret i32 %.0
}